; Function Attrs: mustprogress uwtable
define noundef zeroext i1 @_ZNK6casadi16SparsityInternal19is_orthonormal_rowsEb(ptr noundef nonnull align 8 dereferenceable(56) %0, i1 noundef zeroext %1) local_unnamed_addr #6 align 2 personality ptr @__gxx_personality_v0 {
  %3 = alloca %"class.casadi::Sparsity", align 8
  %4 = alloca %"class.casadi::Sparsity", align 8
  %5 = alloca %"class.casadi::Sparsity", align 8
  br i1 %1, label %17, label %6

6:                                                ; preds = %2
  %7 = getelementptr inbounds i8, ptr %0, i64 24
  %8 = load ptr, ptr %7, align 8
  %9 = load i64, ptr %8, align 8
  %10 = getelementptr inbounds i8, ptr %8, i64 8
  %11 = load i64, ptr %10, align 8
  %12 = icmp sgt i64 %9, %11
  br i1 %12, label %44, label %13

13:                                               ; preds = %6
  %14 = getelementptr inbounds i8, ptr %8, i64 16
  %15 = getelementptr inbounds i64, ptr %14, i64 %11
  %16 = load i64, ptr %15, align 8
  %.not = icmp eq i64 %16, %9
  br i1 %.not, label %17, label %44

17:                                               ; preds = %13, %2
  call void @_ZNK6casadi20SharedObjectInternal16shared_from_thisINS_8SparsityEEEKT_v(ptr dead_on_unwind nonnull writable sret(%"class.casadi::Sparsity") align 8 %3, ptr noundef nonnull align 8 dereferenceable(24) %0)
  invoke void @_ZN6casadi8Sparsity4sum2ERKS0_(ptr dead_on_unwind nonnull writable sret(%"class.casadi::Sparsity") align 8 %4, ptr noundef nonnull align 8 dereferenceable(8) %3)
          to label %_ZN6casadi4sum2ERKNS_8SparsityE.exit unwind label %27

_ZN6casadi4sum2ERKNS_8SparsityE.exit:             ; preds = %17
  %18 = invoke noundef i64 @_ZNK6casadi8Sparsity3nnzEv(ptr noundef nonnull align 8 dereferenceable(8) %4)
          to label %19 unwind label %29

19:                                               ; preds = %_ZN6casadi4sum2ERKNS_8SparsityE.exit
  %20 = getelementptr inbounds i8, ptr %0, i64 24
  %21 = load ptr, ptr %20, align 8
  %22 = getelementptr inbounds i8, ptr %21, i64 16
  %23 = getelementptr inbounds i8, ptr %21, i64 8
  %24 = load i64, ptr %23, align 8
  %25 = getelementptr inbounds i64, ptr %22, i64 %24
  %26 = load i64, ptr %25, align 8
  %.not6 = icmp eq i64 %18, %26
  call void @_ZN6casadi12SharedObjectD2Ev(ptr noundef nonnull align 8 dereferenceable(8) %4) #29
  br i1 %.not6, label %31, label %42

27:                                               ; preds = %31, %17
  %28 = landingpad { ptr, i32 }
          cleanup
  br label %43

29:                                               ; preds = %_ZN6casadi4sum2ERKNS_8SparsityE.exit
  %30 = landingpad { ptr, i32 }
          cleanup
  call void @_ZN6casadi12SharedObjectD2Ev(ptr noundef nonnull align 8 dereferenceable(8) %4) #29
  br label %43

31:                                               ; preds = %19
  invoke void @_ZN6casadi8Sparsity4sum1ERKS0_(ptr dead_on_unwind nonnull writable sret(%"class.casadi::Sparsity") align 8 %5, ptr noundef nonnull align 8 dereferenceable(8) %3)
          to label %_ZN6casadi4sum1ERKNS_8SparsityE.exit unwind label %27

_ZN6casadi4sum1ERKNS_8SparsityE.exit:             ; preds = %31
  %32 = invoke noundef i64 @_ZNK6casadi8Sparsity3nnzEv(ptr noundef nonnull align 8 dereferenceable(8) %5)
          to label %33 unwind label %40

33:                                               ; preds = %_ZN6casadi4sum1ERKNS_8SparsityE.exit
  %34 = load ptr, ptr %20, align 8
  %35 = getelementptr inbounds i8, ptr %34, i64 16
  %36 = getelementptr inbounds i8, ptr %34, i64 8
  %37 = load i64, ptr %36, align 8
  %38 = getelementptr inbounds i64, ptr %35, i64 %37
  %39 = load i64, ptr %38, align 8
  %.not8 = icmp eq i64 %32, %39
  call void @_ZN6casadi12SharedObjectD2Ev(ptr noundef nonnull align 8 dereferenceable(8) %5) #29
  br label %42

40:                                               ; preds = %_ZN6casadi4sum1ERKNS_8SparsityE.exit
  %41 = landingpad { ptr, i32 }
          cleanup
  call void @_ZN6casadi12SharedObjectD2Ev(ptr noundef nonnull align 8 dereferenceable(8) %5) #29
  br label %43

42:                                               ; preds = %33, %19
  %.05 = phi i1 [ false, %19 ], [ %.not8, %33 ]
  call void @_ZN6casadi12SharedObjectD2Ev(ptr noundef nonnull align 8 dereferenceable(8) %3) #29
  br label %44

43:                                               ; preds = %40, %29, %27
  %.pn = phi { ptr, i32 } [ %41, %40 ], [ %28, %27 ], [ %30, %29 ]
  call void @_ZN6casadi12SharedObjectD2Ev(ptr noundef nonnull align 8 dereferenceable(8) %3) #29
  resume { ptr, i32 } %.pn

44:                                               ; preds = %13, %6, %42
  %.1 = phi i1 [ %.05, %42 ], [ false, %6 ], [ false, %13 ]
  ret i1 %.1
}